target datalayout = "e-m:e-p270:32:32-p271:32:32-p272:64:64-i64:64-i128:128-f80:128-n8:16:32:64-S128"
target triple = "x86_64-pc-linux-gnu"

%struct.OutStruct = type { ptr, i8, i8, i8, i8, ptr, i64, i64 }
%struct.OperationConfig = type { i8, ptr, ptr, ptr, ptr, ptr, ptr, i8, i8, i8, i64, i8, i8, i8, i8, i8, ptr, i8, ptr, i8, ptr, i64, ptr, %struct.dynbuf, ptr, ptr, i64, i64, i64, i64, ptr, ptr, ptr, ptr, i64, i64, i16, ptr, i64, i64, i64, i64, ptr, ptr, ptr, ptr, ptr, ptr, ptr, ptr, ptr, ptr, ptr, ptr, ptr, ptr, i32, ptr, ptr, ptr, ptr, i8, ptr, i8, i8, i8, i8, i8, i8, i8, i8, i8, i8, i8, i8, i8, i8, ptr, ptr, ptr, ptr, ptr, ptr, i64, ptr, ptr, ptr, ptr, ptr, ptr, ptr, ptr, ptr, ptr, ptr, ptr, ptr, ptr, ptr, ptr, ptr, ptr, ptr, ptr, ptr, ptr, ptr, ptr, ptr, ptr, ptr, ptr, ptr, ptr, i8, ptr, ptr, ptr, ptr, i64, i8, i8, i8, i8, i8, i8, i8, i8, i8, i8, i8, i8, i8, i8, i8, i8, i8, i8, i8, i8, ptr, ptr, ptr, ptr, i64, i64, i64, i64, i64, i32, i64, ptr, ptr, ptr, ptr, ptr, ptr, ptr, ptr, i32, i64, i64, i8, i8, i8, i8, i32, ptr, i8, i64, ptr, ptr, i8, i8, i64, i8, i8, i64, i64, ptr, ptr, i32, i64, i64, i8, i8, i8, i8, i8, i8, i8, i8, i64, i64, i8, i32, i8, i64, i8, i8, i8, i8, i8, i8, i8, i8, i8, ptr, i8, ptr, i8, i8, i8, i64, i8, i8, i8, i64, i8, ptr, i8, ptr, i32, i8, ptr, ptr, ptr, %struct.State, i8, i8, ptr, ptr, ptr }
%struct.dynbuf = type { ptr, i64, i64, i64 }
%struct.State = type { ptr, ptr, ptr, ptr, ptr, ptr, i64, i64, i64, i64 }
%struct.per_transfer = type { ptr, ptr, ptr, ptr, ptr, i64, i64, i64, i64, %struct.timeval, %struct.timeval, ptr, i32, ptr, i32, %struct.ProgressData, %struct.OutStruct, %struct.OutStruct, %struct.OutStruct, %struct.HdrCbData, i64, i64, i64, i64, i64, i64, i64, i64, i8, i8, ptr, ptr, i8, i8, i8, i8, i8, i8 }
%struct.timeval = type { i64, i64 }
%struct.ProgressData = type { i32, i64, %struct.timeval, i32, ptr, i64, i32, i32, i32 }
%struct.HdrCbData = type { ptr, ptr, ptr, ptr, ptr, ptr, i8 }
%struct.GlobalConfig = type { i8, i8, i8, i8, i8, ptr, ptr, i8, i32, i8, i8, i32, ptr, i8, i8, i64, ptr, i8, i16, i8, ptr, ptr, ptr, ptr, ptr }

@.str.5 = private unnamed_addr constant [158 x i8] c"Binary output can mess up your terminal. Use \22--output -\22 to tell curl to output it to your terminal anyway, or consider \22--output <FILE>\22 to save to a file.\00", align 1

; Function Attrs: nounwind uwtable
define dso_local i64 @tool_write_cb(ptr noundef %0, i64 noundef %1, i64 noundef %2, ptr noundef %3) #0 {
  %5 = alloca i64, align 8
  %6 = alloca ptr, align 8
  %7 = alloca i64, align 8
  %8 = alloca i64, align 8
  %9 = alloca ptr, align 8
  %10 = alloca i64, align 8
  %11 = alloca ptr, align 8
  %12 = alloca ptr, align 8
  %13 = alloca ptr, align 8
  %14 = alloca i64, align 8
  %15 = alloca i8, align 1
  %16 = alloca i32, align 4
  %17 = alloca i32, align 4
  store ptr %0, ptr %6, align 8, !tbaa !18
  store i64 %1, ptr %7, align 8, !tbaa !39
  store i64 %2, ptr %8, align 8, !tbaa !39
  store ptr %3, ptr %9, align 8, !tbaa !49
  call void @llvm.lifetime.start.p0(i64 8, ptr %10) #8
  call void @llvm.lifetime.start.p0(i64 8, ptr %11) #8
  %18 = load ptr, ptr %9, align 8, !tbaa !49
  store ptr %18, ptr %11, align 8, !tbaa !50
  call void @llvm.lifetime.start.p0(i64 8, ptr %12) #8
  %19 = load ptr, ptr %11, align 8, !tbaa !50
  %20 = getelementptr inbounds nuw %struct.per_transfer, ptr %19, i32 0, i32 16
  store ptr %20, ptr %12, align 8, !tbaa !4
  call void @llvm.lifetime.start.p0(i64 8, ptr %13) #8
  %21 = load ptr, ptr %11, align 8, !tbaa !50
  %22 = getelementptr inbounds nuw %struct.per_transfer, ptr %21, i32 0, i32 2
  %23 = load ptr, ptr %22, align 8, !tbaa !52
  store ptr %23, ptr %13, align 8, !tbaa !9
  call void @llvm.lifetime.start.p0(i64 8, ptr %14) #8
  %24 = load i64, ptr %7, align 8, !tbaa !39
  %25 = load i64, ptr %8, align 8, !tbaa !39
  %26 = mul i64 %24, %25
  store i64 %26, ptr %14, align 8, !tbaa !39
  call void @llvm.lifetime.start.p0(i64 1, ptr %15) #8
  %27 = load ptr, ptr %13, align 8, !tbaa !9
  %28 = getelementptr inbounds nuw %struct.OperationConfig, ptr %27, i32 0, i32 224
  %29 = load ptr, ptr %28, align 8, !tbaa !19
  %30 = getelementptr inbounds nuw %struct.GlobalConfig, ptr %29, i32 0, i32 3
  %31 = load i8, ptr %30, align 1, !tbaa !58, !range !34, !noundef !35
  %32 = trunc i8 %31 to i1
  %33 = zext i1 %32 to i8
  store i8 %33, ptr %15, align 1, !tbaa !61
  %34 = load ptr, ptr %12, align 8, !tbaa !4
  %35 = getelementptr inbounds nuw %struct.OutStruct, ptr %34, i32 0, i32 5
  %36 = load ptr, ptr %35, align 8, !tbaa !46
  %37 = icmp ne ptr %36, null
  br i1 %37, label %45, label %38

38:                                               ; preds = %4
  %39 = load ptr, ptr %12, align 8, !tbaa !4
  %40 = load ptr, ptr %11, align 8, !tbaa !50
  %41 = getelementptr inbounds nuw %struct.per_transfer, ptr %40, i32 0, i32 2
  %42 = load ptr, ptr %41, align 8, !tbaa !52
  %43 = call zeroext i1 @tool_create_output_file(ptr noundef %39, ptr noundef %42)
  br i1 %43, label %45, label %44

44:                                               ; preds = %38
  store i64 4294967295, ptr %5, align 8
  store i32 1, ptr %16, align 4
  br label %134

45:                                               ; preds = %38, %4
  %46 = load i8, ptr %15, align 1, !tbaa !61, !range !34, !noundef !35
  %47 = trunc i8 %46 to i1
  br i1 %47, label %48, label %70

48:                                               ; preds = %45
  %49 = load ptr, ptr %12, align 8, !tbaa !4
  %50 = getelementptr inbounds nuw %struct.OutStruct, ptr %49, i32 0, i32 6
  %51 = load i64, ptr %50, align 8, !tbaa !47
  %52 = icmp slt i64 %51, 2000
  br i1 %52, label %53, label %70

53:                                               ; preds = %48
  %54 = load ptr, ptr %13, align 8, !tbaa !9
  %55 = getelementptr inbounds nuw %struct.OperationConfig, ptr %54, i32 0, i32 128
  %56 = load i8, ptr %55, align 8, !tbaa !62, !range !34, !noundef !35
  %57 = trunc i8 %56 to i1
  br i1 %57, label %70, label %58

58:                                               ; preds = %53
  %59 = load ptr, ptr %6, align 8, !tbaa !18
  %60 = load i64, ptr %14, align 8, !tbaa !39
  %61 = call ptr @memchr(ptr noundef %59, i32 noundef 0, i64 noundef %60) #10
  %62 = icmp ne ptr %61, null
  br i1 %62, label %63, label %69

63:                                               ; preds = %58
  %64 = load ptr, ptr %13, align 8, !tbaa !9
  %65 = getelementptr inbounds nuw %struct.OperationConfig, ptr %64, i32 0, i32 224
  %66 = load ptr, ptr %65, align 8, !tbaa !19
  call void (ptr, ptr, ...) @warnf(ptr noundef %66, ptr noundef @.str.5)
  %67 = load ptr, ptr %13, align 8, !tbaa !9
  %68 = getelementptr inbounds nuw %struct.OperationConfig, ptr %67, i32 0, i32 215
  store i8 1, ptr %68, align 1, !tbaa !63
  store i64 4294967295, ptr %5, align 8
  store i32 1, ptr %16, align 4
  br label %134

69:                                               ; preds = %58
  br label %70

70:                                               ; preds = %69, %53, %48, %45
  %71 = load ptr, ptr %11, align 8, !tbaa !50
  %72 = getelementptr inbounds nuw %struct.per_transfer, ptr %71, i32 0, i32 19
  %73 = getelementptr inbounds nuw %struct.HdrCbData, ptr %72, i32 0, i32 5
  %74 = load ptr, ptr %73, align 8, !tbaa !64
  %75 = icmp ne ptr %74, null
  br i1 %75, label %76, label %86

76:                                               ; preds = %70
  %77 = load ptr, ptr %11, align 8, !tbaa !50
  %78 = getelementptr inbounds nuw %struct.per_transfer, ptr %77, i32 0, i32 19
  %79 = load ptr, ptr %12, align 8, !tbaa !4
  %80 = getelementptr inbounds nuw %struct.OutStruct, ptr %79, i32 0, i32 5
  %81 = load ptr, ptr %80, align 8, !tbaa !46
  %82 = call i32 @tool_write_headers(ptr noundef %78, ptr noundef %81)
  %83 = icmp ne i32 %82, 0
  br i1 %83, label %84, label %85

84:                                               ; preds = %76
  store i64 4294967295, ptr %5, align 8
  store i32 1, ptr %16, align 4
  br label %134

85:                                               ; preds = %76
  br label %86

86:                                               ; preds = %85, %70
  %87 = load ptr, ptr %6, align 8, !tbaa !18
  %88 = load i64, ptr %7, align 8, !tbaa !39
  %89 = load i64, ptr %8, align 8, !tbaa !39
  %90 = load ptr, ptr %12, align 8, !tbaa !4
  %91 = getelementptr inbounds nuw %struct.OutStruct, ptr %90, i32 0, i32 5
  %92 = load ptr, ptr %91, align 8, !tbaa !46
  %93 = call i64 @fwrite(ptr noundef %87, i64 noundef %88, i64 noundef %89, ptr noundef %92)
  store i64 %93, ptr %10, align 8, !tbaa !39
  %94 = load i64, ptr %14, align 8, !tbaa !39
  %95 = load i64, ptr %10, align 8, !tbaa !39
  %96 = icmp eq i64 %94, %95
  br i1 %96, label %97, label %103

97:                                               ; preds = %86
  %98 = load i64, ptr %14, align 8, !tbaa !39
  %99 = load ptr, ptr %12, align 8, !tbaa !4
  %100 = getelementptr inbounds nuw %struct.OutStruct, ptr %99, i32 0, i32 6
  %101 = load i64, ptr %100, align 8, !tbaa !47
  %102 = add i64 %101, %98
  store i64 %102, ptr %100, align 8, !tbaa !47
  br label %103

103:                                              ; preds = %97, %86
  %104 = load ptr, ptr %13, align 8, !tbaa !9
  %105 = getelementptr inbounds nuw %struct.OperationConfig, ptr %104, i32 0, i32 122
  %106 = load i8, ptr %105, align 2, !tbaa !65, !range !34, !noundef !35
  %107 = trunc i8 %106 to i1
  br i1 %107, label %108, label %115

108:                                              ; preds = %103
  %109 = load ptr, ptr %13, align 8, !tbaa !9
  %110 = getelementptr inbounds nuw %struct.OperationConfig, ptr %109, i32 0, i32 122
  store i8 0, ptr %110, align 2, !tbaa !65
  %111 = load ptr, ptr %11, align 8, !tbaa !50
  %112 = getelementptr inbounds nuw %struct.per_transfer, ptr %111, i32 0, i32 4
  %113 = load ptr, ptr %112, align 8, !tbaa !66
  %114 = call i32 @curl_easy_pause(ptr noundef %113, i32 noundef 0)
  br label %115

115:                                              ; preds = %108, %103
  %116 = load ptr, ptr %13, align 8, !tbaa !9
  %117 = getelementptr inbounds nuw %struct.OperationConfig, ptr %116, i32 0, i32 121
  %118 = load i8, ptr %117, align 1, !tbaa !67, !range !34, !noundef !35
  %119 = trunc i8 %118 to i1
  br i1 %119, label %120, label %132

120:                                              ; preds = %115
  call void @llvm.lifetime.start.p0(i64 4, ptr %17) #8
  %121 = load ptr, ptr %12, align 8, !tbaa !4
  %122 = getelementptr inbounds nuw %struct.OutStruct, ptr %121, i32 0, i32 5
  %123 = load ptr, ptr %122, align 8, !tbaa !46
  %124 = call i32 @fflush(ptr noundef %123)
  store i32 %124, ptr %17, align 4, !tbaa !36
  %125 = load i32, ptr %17, align 4, !tbaa !36
  %126 = icmp ne i32 %125, 0
  br i1 %126, label %127, label %128

127:                                              ; preds = %120
  store i64 4294967295, ptr %5, align 8
  store i32 1, ptr %16, align 4
  br label %129

128:                                              ; preds = %120
  store i32 0, ptr %16, align 4
  br label %129

129:                                              ; preds = %128, %127
  call void @llvm.lifetime.end.p0(i64 4, ptr %17) #8
  %130 = load i32, ptr %16, align 4
  switch i32 %130, label %134 [
    i32 0, label %131
  ]

131:                                              ; preds = %129
  br label %132

132:                                              ; preds = %131, %115
  %133 = load i64, ptr %10, align 8, !tbaa !39
  store i64 %133, ptr %5, align 8
  store i32 1, ptr %16, align 4
  br label %134

134:                                              ; preds = %132, %129, %84, %63, %44
  call void @llvm.lifetime.end.p0(i64 1, ptr %15) #8
  call void @llvm.lifetime.end.p0(i64 8, ptr %14) #8
  call void @llvm.lifetime.end.p0(i64 8, ptr %13) #8
  call void @llvm.lifetime.end.p0(i64 8, ptr %12) #8
  call void @llvm.lifetime.end.p0(i64 8, ptr %11) #8
  call void @llvm.lifetime.end.p0(i64 8, ptr %10) #8
  %135 = load i64, ptr %5, align 8
  ret i64 %135
}