; Function Attrs: nounwind uwtable
define dso_local noundef i64 @tool_write_cb(ptr noundef %0, i64 noundef %1, i64 noundef %2, ptr noundef %3) local_unnamed_addr #0 {
  %5 = getelementptr inbounds nuw i8, ptr %3, i64 16
  %6 = load ptr, ptr %5, align 8, !tbaa !40
  %7 = mul i64 %2, %1
  %8 = getelementptr inbounds nuw i8, ptr %6, i64 1328
  %9 = load ptr, ptr %8, align 8, !tbaa !13
  %10 = getelementptr inbounds nuw i8, ptr %9, i64 3
  %11 = load i8, ptr %10, align 1, !tbaa !48, !range !28, !noundef !29
  %12 = trunc nuw i8 %11 to i1
  %13 = getelementptr inbounds nuw i8, ptr %3, i64 224
  %14 = load ptr, ptr %13, align 8, !tbaa !39
  %.not = icmp eq ptr %14, null
  br i1 %.not, label %15, label %18

15:                                               ; preds = %4
  %16 = getelementptr inbounds nuw i8, ptr %3, i64 208
  %17 = tail call zeroext i1 @tool_create_output_file(ptr noundef nonnull %16, ptr noundef nonnull %6)
  br i1 %17, label %18, label %62

18:                                               ; preds = %15, %4
  br i1 %12, label %19, label %32

19:                                               ; preds = %18
  %20 = getelementptr inbounds nuw i8, ptr %3, i64 232
  %21 = load i64, ptr %20, align 8, !tbaa !51
  %22 = icmp slt i64 %21, 2000
  br i1 %22, label %23, label %32

23:                                               ; preds = %19
  %24 = getelementptr inbounds nuw i8, ptr %6, i64 848
  %25 = load i8, ptr %24, align 8, !tbaa !52, !range !28, !noundef !29
  %26 = trunc nuw i8 %25 to i1
  br i1 %26, label %32, label %27

27:                                               ; preds = %23
  %28 = tail call ptr @memchr(ptr noundef %0, i32 noundef 0, i64 noundef %7) #12
  %.not37 = icmp eq ptr %28, null
  br i1 %.not37, label %32, label %29

29:                                               ; preds = %27
  %30 = load ptr, ptr %8, align 8, !tbaa !13
  tail call void (ptr, ptr, ...) @warnf(ptr noundef %30, ptr noundef nonnull @.str.5) #10
  %31 = getelementptr inbounds nuw i8, ptr %6, i64 1273
  store i8 1, ptr %31, align 1, !tbaa !53
  br label %62

32:                                               ; preds = %27, %23, %19, %18
  %33 = getelementptr inbounds nuw i8, ptr %3, i64 368
  %34 = load ptr, ptr %33, align 8, !tbaa !54
  %.not38 = icmp eq ptr %34, null
  %.pre41 = load ptr, ptr %13, align 8, !tbaa !39
  br i1 %.not38, label %38, label %35

35:                                               ; preds = %32
  %36 = getelementptr inbounds nuw i8, ptr %3, i64 328
  %37 = tail call i32 @tool_write_headers(ptr noundef nonnull %36, ptr noundef %.pre41) #10
  %.not39 = icmp eq i32 %37, 0
  br i1 %.not39, label %._crit_edge, label %62

._crit_edge:                                      ; preds = %35
  %.pre = load ptr, ptr %13, align 8, !tbaa !39
  br label %38

38:                                               ; preds = %._crit_edge, %32
  %39 = phi ptr [ %.pre, %._crit_edge ], [ %.pre41, %32 ]
  %40 = tail call i64 @fwrite(ptr noundef %0, i64 noundef %1, i64 noundef %2, ptr noundef %39)
  %41 = icmp eq i64 %7, %40
  br i1 %41, label %42, label %46

42:                                               ; preds = %38
  %43 = getelementptr inbounds nuw i8, ptr %3, i64 232
  %44 = load i64, ptr %43, align 8, !tbaa !51
  %45 = add i64 %44, %7
  store i64 %45, ptr %43, align 8, !tbaa !51
  br label %46

46:                                               ; preds = %42, %38
  %47 = getelementptr inbounds nuw i8, ptr %6, i64 842
  %48 = load i8, ptr %47, align 2, !tbaa !55, !range !28, !noundef !29
  %49 = trunc nuw i8 %48 to i1
  br i1 %49, label %50, label %54

50:                                               ; preds = %46
  store i8 0, ptr %47, align 2, !tbaa !55
  %51 = getelementptr inbounds nuw i8, ptr %3, i64 32
  %52 = load ptr, ptr %51, align 8, !tbaa !56
  %53 = tail call i32 @curl_easy_pause(ptr noundef %52, i32 noundef 0) #10
  br label %54

54:                                               ; preds = %50, %46
  %55 = getelementptr inbounds nuw i8, ptr %6, i64 841
  %56 = load i8, ptr %55, align 1, !tbaa !57, !range !28, !noundef !29
  %57 = trunc nuw i8 %56 to i1
  br i1 %57, label %58, label %61

58:                                               ; preds = %54
  %59 = load ptr, ptr %13, align 8, !tbaa !39
  %60 = tail call i32 @fflush(ptr noundef %59)
  %.not40 = icmp eq i32 %60, 0
  br i1 %.not40, label %61, label %62

61:                                               ; preds = %58, %54
  br label %62

62:                                               ; preds = %35, %15, %58, %61, %29
  %.0 = phi i64 [ %40, %61 ], [ 4294967295, %58 ], [ 4294967295, %29 ], [ 4294967295, %15 ], [ 4294967295, %35 ]
  ret i64 %.0
}